Certificate:
    Data:
        Version: 3 (0x2)
        Serial Number:
            54:f4:95:de:92:85:2e:6c:cf:50:73:af:00:0f:b2:17
    Signature Algorithm: sha256WithRSAEncryption
        Issuer: C=PA, ST=PANAMA, L=PANAMA, O=OneTimeVPN, OU=OneTimeVPN, CN=ChangeMe/emailAddress=ca@onetimevpn.com
        Validity
            Not Before: Oct 17 23:13:51 2018 GMT
            Not After : Oct 14 23:13:51 2028 GMT
        Subject: C=PA, ST=PANAMA, L=PANAMA, O=OneTimeVPN, OU=OneTimeVPN, CN=client/emailAddress=ca@onetimevpn.com
        Subject Public Key Info:
            Public Key Algorithm: rsaEncryption
                Public-Key: (2048 bit)
                Modulus:
                    00:a8:bd:9c:5f:e1:9a:37:98:2a:56:85:09:2a:93:
                    29:f0:4e:05:03:b5:99:5d:4e:3f:fb:b4:3d:a5:b8:
                    5d:26:0d:74:e0:67:08:a4:9e:00:a4:83:44:fb:f6:
                    d4:e6:72:78:65:f0:e6:b1:72:23:80:a7:cb:4f:3f:
                    68:eb:50:99:1e:6b:5b:d2:f6:10:88:5e:89:40:71:
                    10:68:50:08:02:5e:5e:7d:e9:d0:b3:1f:b6:77:f8:
                    43:8d:28:ae:2e:46:54:ac:aa:4b:a3:5f:e9:d8:de:
                    60:43:29:dc:09:47:85:4e:fe:1b:ab:cf:7f:5c:77:
                    c7:a5:67:ab:de:f2:76:ef:9e:5d:07:81:f5:67:db:
                    e5:93:8c:6f:f8:1f:e2:70:e0:4a:8f:dc:02:81:06:
                    9f:dc:5d:5d:bc:7f:62:6a:31:7e:af:6f:a7:5c:fa:
                    68:27:2f:58:7e:e1:c5:c5:31:d4:2b:dc:30:38:05:
                    19:c0:13:05:65:a0:9c:d8:ce:6e:23:d9:a1:bb:fa:
                    50:f9:63:12:cb:04:3e:16:cb:14:16:02:cc:5a:04:
                    1f:d0:a1:0a:28:10:aa:f5:8a:85:c2:6f:28:75:cd:
                    07:24:86:83:33:73:3f:fb:43:26:07:7f:ef:05:f6:
                    32:12:c7:3f:44:71:16:63:99:f4:31:72:3e:2a:dd:
                    ab:af
                Exponent: 65537 (0x10001)
        X509v3 extensions:
            X509v3 Basic Constraints: 
                CA:FALSE
            X509v3 Subject Key Identifier: 
                4F:0D:78:74:5D:49:D7:A5:F5:AD:B3:47:76:5F:30:2F:4D:DE:5C:60
            X509v3 Authority Key Identifier: 
                keyid:21:A9:AF:32:6C:E9:6C:73:27:87:6A:9C:0C:96:59:63:1A:1E:BE:5E
                DirName:/C=PA/ST=PANAMA/L=PANAMA/O=OneTimeVPN/OU=OneTimeVPN/CN=ChangeMe/emailAddress=ca@onetimevpn.com
                serial:89:4A:A7:46:10:0F:96:69

            X509v3 Extended Key Usage: 
                TLS Web Client Authentication
            X509v3 Key Usage: 
                Digital Signature
    Signature Algorithm: sha256WithRSAEncryption
         3e:da:6a:32:d4:06:5b:a3:39:34:d9:ee:b5:5a:b0:31:ad:73:
         81:c4:03:a0:fc:4c:73:da:6e:e0:60:f4:07:e9:fc:8e:e6:98:
         fa:40:7d:13:94:55:36:11:ce:8e:d1:bd:76:83:b8:8a:05:b6:
         2f:40:67:0e:aa:80:c8:0d:8d:e6:22:85:2f:e3:ec:9d:4e:75:
         2f:3e:12:9c:48:47:43:51:30:ef:6b:f0:ba:e5:32:c2:ed:97:
         8c:2c:f7:d1:73:00:73:b4:92:8a:26:95:b0:61:3c:39:5f:02:
         f1:a9:16:06:74:a8:54:d6:52:df:1f:b5:a4:9e:ed:85:8f:17:
         a9:70:cc:6f:e1:4e:20:da:1f:bd:03:8b:01:b7:59:82:7f:ad:
         82:bd:50:27:34:68:72:d4:0c:22:67:04:9f:d2:9e:27:98:d2:
         cb:9b:31:54:ca:a6:fd:3a:73:f3:8b:a5:9f:c7:b3:36:dc:bc:
         4b:59:0f:9d:09:6d:3c:7e:43:d9:8d:d5:da:c5:a2:fe:e3:fc:
         68:ff:4d:72:b2:4d:0f:3a:74:ef:56:7b:96:fc:8e:11:40:8b:
         93:fa:69:a1:31:22:6e:4e:7a:e2:70:92:a4:29:79:33:be:c5:
         d7:a9:66:67:52:e5:8c:2f:38:76:a8:38:e0:c4:40:94:ae:a5:
         a5:98:96:2a
-----BEGIN CERTIFICATE-----
MIIEvjCCA6agAwIBAgIQVPSV3pKFLmzPUHOvAA+yFzANBgkqhkiG9w0BAQsFADCB
jjELMAkGA1UEBhMCUEExDzANBgNVBAgMBlBBTkFNQTEPMA0GA1UEBwwGUEFOQU1B
MRMwEQYDVQQKDApPbmVUaW1lVlBOMRMwEQYDVQQLDApPbmVUaW1lVlBOMREwDwYD
VQQDDAhDaGFuZ2VNZTEgMB4GCSqGSIb3DQEJARYRY2FAb25ldGltZXZwbi5jb20w
HhcNMTgxMDE3MjMxMzUxWhcNMjgxMDE0MjMxMzUxWjCBjDELMAkGA1UEBhMCUEEx
DzANBgNVBAgMBlBBTkFNQTEPMA0GA1UEBwwGUEFOQU1BMRMwEQYDVQQKDApPbmVU
aW1lVlBOMRMwEQYDVQQLDApPbmVUaW1lVlBOMQ8wDQYDVQQDDAZjbGllbnQxIDAe
BgkqhkiG9w0BCQEWEWNhQG9uZXRpbWV2cG4uY29tMIIBIjANBgkqhkiG9w0BAQEF
AAOCAQ8AMIIBCgKCAQEAqL2cX+GaN5gqVoUJKpMp8E4FA7WZXU4/+7Q9pbhdJg10
4GcIpJ4ApINE+/bU5nJ4ZfDmsXIjgKfLTz9o61CZHmtb0vYQiF6JQHEQaFAIAl5e
fenQsx+2d/hDjSiuLkZUrKpLo1/p2N5gQyncCUeFTv4bq89/XHfHpWer3vJ2755d
B4H1Z9vlk4xv+B/icOBKj9wCgQaf3F1dvH9iajF+r2+nXPpoJy9YfuHFxTHUK9ww
OAUZwBMFZaCc2M5uI9mhu/pQ+WMSywQ+FssUFgLMWgQf0KEKKBCq9YqFwm8odc0H
JIaDM3M/+0MmB3/vBfYyEsc/RHEWY5n0MXI+Kt2rrwIDAQABo4IBFjCCARIwCQYD
VR0TBAIwADAdBgNVHQ4EFgQUTw14dF1J16X1rbNHdl8wL03eXGAwgcMGA1UdIwSB
uzCBuIAUIamvMmzpbHMnh2qcDJZZYxoevl6hgZSkgZEwgY4xCzAJBgNVBAYTAlBB
MQ8wDQYDVQQIDAZQQU5BTUExDzANBgNVBAcMBlBBTkFNQTETMBEGA1UECgwKT25l
VGltZVZQTjETMBEGA1UECwwKT25lVGltZVZQTjERMA8GA1UEAwwIQ2hhbmdlTWUx
IDAeBgkqhkiG9w0BCQEWEWNhQG9uZXRpbWV2cG4uY29tggkAiUqnRhAPlmkwEwYD
VR0lBAwwCgYIKwYBBQUHAwIwCwYDVR0PBAQDAgeAMA0GCSqGSIb3DQEBCwUAA4IB
AQA+2moy1AZbozk02e61WrAxrXOBxAOg/Exz2m7gYPQH6fyO5pj6QH0TlFU2Ec6O
0b12g7iKBbYvQGcOqoDIDY3mIoUv4+ydTnUvPhKcSEdDUTDva/C65TLC7ZeMLPfR
cwBztJKKJpWwYTw5XwLxqRYGdKhU1lLfH7Wknu2FjxepcMxv4U4g2h+9A4sBt1mC
f62CvVAnNGhy1AwiZwSf0p4nmNLLmzFUyqb9OnPzi6Wfx7M23LxLWQ+dCW08fkPZ
jdXaxaL+4/xo/01ysk0POnTvVnuW/I4RQIuT+mmhMSJuTnricJKkKXkzvsXXqWZn
UuWMLzh2qDjgxECUrqWlmJYq
-----END CERTIFICATE-----
