Certificate:
    Data:
        Version: 3 (0x2)
        Serial Number:
            b0:ad:75:35:ba:06:d4:c8:48:25:07:22:e4:ce:37:1d
    Signature Algorithm: sha256WithRSAEncryption
        Issuer: C=PA, ST=PANAMA, L=PANAMA, O=OneTimeVPN, OU=OneTimeVPN, CN=ChangeMe/emailAddress=ca@onetimevpn.com
        Validity
            Not Before: Oct  8 22:57:13 2018 GMT
            Not After : Oct  5 22:57:13 2028 GMT
        Subject: C=PA, ST=PANAMA, L=PANAMA, O=OneTimeVPN, OU=OneTimeVPN, CN=server/emailAddress=ca@onetimevpn.com
        Subject Public Key Info:
            Public Key Algorithm: rsaEncryption
                Public-Key: (2048 bit)
                Modulus:
                    00:a7:df:de:3c:18:f1:98:d0:a1:20:99:50:92:66:
                    76:8f:1c:7e:14:a0:f7:b4:d0:e5:6c:d9:12:db:4a:
                    a9:c4:26:95:61:c2:2c:22:83:14:86:7b:e9:cc:ff:
                    21:3f:63:12:97:96:ec:1f:a9:17:59:97:9b:e1:b7:
                    5e:bf:08:c7:4f:20:de:e2:1f:3c:31:49:3b:98:48:
                    92:d7:ca:7a:5d:51:67:aa:e2:a2:70:12:57:07:92:
                    a6:d4:36:87:2d:c9:7d:be:b0:01:38:84:7c:c4:a7:
                    47:59:c6:dd:94:94:52:d9:ee:54:f0:bb:be:7b:86:
                    59:44:79:a4:d1:bc:bb:f9:57:22:28:aa:59:20:9d:
                    f6:9c:a1:68:1f:14:dc:47:60:7d:ec:a9:51:10:8b:
                    0b:fb:27:2c:f7:bd:ed:71:e7:71:1a:89:3e:9c:c7:
                    4a:69:a5:70:4e:74:86:d6:57:25:f6:e6:b4:89:40:
                    68:89:f0:1c:97:25:66:3e:4c:cd:50:d7:68:4b:56:
                    d9:33:52:4b:47:0c:07:80:d2:d9:1e:3b:93:9a:1a:
                    c3:34:d2:eb:37:4f:c3:67:0b:22:66:4c:25:6a:78:
                    4e:35:0a:3d:da:32:86:c4:63:c1:e1:ee:a4:b7:86:
                    f3:81:f5:ac:f7:0c:a4:32:31:2f:eb:50:e0:24:9f:
                    d5:87
                Exponent: 65537 (0x10001)
        X509v3 extensions:
            X509v3 Basic Constraints: 
                CA:FALSE
            X509v3 Subject Key Identifier: 
                A2:66:72:46:52:13:9C:1F:83:E9:2A:BE:EB:B4:45:97:3E:1E:EC:3B
            X509v3 Authority Key Identifier: 
                keyid:92:DC:1C:EA:C5:82:3A:04:24:27:04:36:AF:A9:9A:6C:04:DB:DC:D3
                DirName:/C=PA/ST=PANAMA/L=PANAMA/O=OneTimeVPN/OU=OneTimeVPN/CN=ChangeMe/emailAddress=ca@onetimevpn.com
                serial:A1:EF:C1:77:C2:DA:58:7B

            X509v3 Extended Key Usage: 
                TLS Web Server Authentication
            X509v3 Key Usage: 
                Digital Signature, Key Encipherment
            X509v3 Subject Alternative Name: 
                DNS:server
    Signature Algorithm: sha256WithRSAEncryption
         3d:b6:48:65:95:18:33:69:7d:35:a8:ba:bd:50:03:18:9d:43:
         ef:f5:80:f3:9e:85:75:04:96:56:4c:82:86:f6:c5:b0:34:e5:
         8e:23:7e:38:bb:d2:b1:e3:54:32:d1:15:a3:b9:5c:38:9a:3f:
         42:30:06:95:d3:3b:24:e6:c2:89:bc:5f:7b:5f:c8:99:f4:1c:
         50:70:6c:cc:77:2a:0a:a0:ab:b7:be:34:88:c5:78:19:79:8e:
         74:16:ac:e7:30:f4:56:e0:56:b5:4b:15:f7:62:d0:35:bc:6f:
         1b:8f:72:86:62:67:69:75:73:4c:56:73:69:88:9e:46:84:30:
         1c:3b:fa:12:26:06:be:74:99:7d:8a:7c:28:17:b6:7d:b9:2a:
         c3:c0:0a:3d:63:3d:8d:74:1f:a4:a2:4e:0b:a7:87:23:1e:0d:
         9d:81:c7:cf:e8:a6:13:fd:6b:3b:c5:67:e8:14:0b:81:87:c1:
         75:1b:cc:78:98:a6:55:43:fb:6f:1c:45:4f:20:07:16:94:bf:
         b4:e9:4b:bf:bc:40:a3:9f:ff:5f:bf:ff:03:e8:4f:4f:bb:83:
         bb:f8:43:2b:72:b0:79:05:0f:62:38:ea:29:3d:1e:c2:d3:d4:
         72:d5:15:cb:63:dd:cd:86:de:d5:dd:0d:7f:1c:38:b3:54:ad:
         ba:1e:59:c9
-----BEGIN CERTIFICATE-----
MIIE0jCCA7qgAwIBAgIRALCtdTW6BtTISCUHIuTONx0wDQYJKoZIhvcNAQELBQAw
gY4xCzAJBgNVBAYTAlBBMQ8wDQYDVQQIDAZQQU5BTUExDzANBgNVBAcMBlBBTkFN
QTETMBEGA1UECgwKT25lVGltZVZQTjETMBEGA1UECwwKT25lVGltZVZQTjERMA8G
A1UEAwwIQ2hhbmdlTWUxIDAeBgkqhkiG9w0BCQEWEWNhQG9uZXRpbWV2cG4uY29t
MB4XDTE4MTAwODIyNTcxM1oXDTI4MTAwNTIyNTcxM1owgYwxCzAJBgNVBAYTAlBB
MQ8wDQYDVQQIDAZQQU5BTUExDzANBgNVBAcMBlBBTkFNQTETMBEGA1UECgwKT25l
VGltZVZQTjETMBEGA1UECwwKT25lVGltZVZQTjEPMA0GA1UEAwwGc2VydmVyMSAw
HgYJKoZIhvcNAQkBFhFjYUBvbmV0aW1ldnBuLmNvbTCCASIwDQYJKoZIhvcNAQEB
BQADggEPADCCAQoCggEBAKff3jwY8ZjQoSCZUJJmdo8cfhSg97TQ5WzZEttKqcQm
lWHCLCKDFIZ76cz/IT9jEpeW7B+pF1mXm+G3Xr8Ix08g3uIfPDFJO5hIktfKel1R
Z6rionASVweSptQ2hy3Jfb6wATiEfMSnR1nG3ZSUUtnuVPC7vnuGWUR5pNG8u/lX
IiiqWSCd9pyhaB8U3EdgfeypURCLC/snLPe97XHncRqJPpzHSmmlcE50htZXJfbm
tIlAaInwHJclZj5MzVDXaEtW2TNSS0cMB4DS2R47k5oawzTS6zdPw2cLImZMJWp4
TjUKPdoyhsRjweHupLeG84H1rPcMpDIxL+tQ4CSf1YcCAwEAAaOCASkwggElMAkG
A1UdEwQCMAAwHQYDVR0OBBYEFKJmckZSE5wfg+kqvuu0RZc+Huw7MIHDBgNVHSME
gbswgbiAFJLcHOrFgjoEJCcENq+pmmwE29zToYGUpIGRMIGOMQswCQYDVQQGEwJQ
QTEPMA0GA1UECAwGUEFOQU1BMQ8wDQYDVQQHDAZQQU5BTUExEzARBgNVBAoMCk9u
ZVRpbWVWUE4xEzARBgNVBAsMCk9uZVRpbWVWUE4xETAPBgNVBAMMCENoYW5nZU1l
MSAwHgYJKoZIhvcNAQkBFhFjYUBvbmV0aW1ldnBuLmNvbYIJAKHvwXfC2lh7MBMG
A1UdJQQMMAoGCCsGAQUFBwMBMAsGA1UdDwQEAwIFoDARBgNVHREECjAIggZzZXJ2
ZXIwDQYJKoZIhvcNAQELBQADggEBAD22SGWVGDNpfTWour1QAxidQ+/1gPOehXUE
llZMgob2xbA05Y4jfji70rHjVDLRFaO5XDiaP0IwBpXTOyTmwom8X3tfyJn0HFBw
bMx3Kgqgq7e+NIjFeBl5jnQWrOcw9FbgVrVLFfdi0DW8bxuPcoZiZ2l1c0xWc2mI
nkaEMBw7+hImBr50mX2KfCgXtn25KsPACj1jPY10H6SiTgunhyMeDZ2Bx8/ophP9
azvFZ+gUC4GHwXUbzHiYplVD+28cRU8gBxaUv7TpS7+8QKOf/1+//wPoT0+7g7v4
QytysHkFD2I46ik9HsLT1HLVFctj3c2G3tXdDX8cOLNUrboeWck=
-----END CERTIFICATE-----
