Certificate:
    Data:
        Version: 3 (0x2)
        Serial Number:
            0a:90:4e:e2:e1:77:a7:17:72:fc:02:a3:a1:66:2e:68
    Signature Algorithm: sha256WithRSAEncryption
        Issuer: C=PA, ST=PANAMA, L=PANAMA, O=OneTimeVPN, OU=OneTimeVPN, CN=ChangeMe/emailAddress=ca@onetimevpn.com
        Validity
            Not Before: Oct  8 22:57:13 2018 GMT
            Not After : Oct  5 22:57:13 2028 GMT
        Subject: C=PA, ST=PANAMA, L=PANAMA, O=OneTimeVPN, OU=OneTimeVPN, CN=client/emailAddress=ca@onetimevpn.com
        Subject Public Key Info:
            Public Key Algorithm: rsaEncryption
                Public-Key: (2048 bit)
                Modulus:
                    00:ce:57:f4:a0:01:c9:fc:7f:d2:cf:86:e6:38:23:
                    2a:4b:78:43:2c:c8:56:a4:8f:12:42:e1:b9:65:87:
                    a7:6c:e9:91:59:38:7c:a4:71:9f:c0:11:5c:38:52:
                    71:ea:af:17:7c:37:61:b8:44:4d:41:e9:49:f8:0e:
                    05:65:4d:49:7c:ea:f7:9a:b5:87:96:af:54:6d:48:
                    47:ed:83:86:c9:8f:7b:86:7b:31:2d:3d:00:46:70:
                    89:b8:82:09:2a:8a:fd:19:12:95:75:dd:56:8c:31:
                    4b:99:31:e2:9c:7f:7d:92:53:3a:4f:37:84:71:74:
                    9e:df:d2:40:9e:b7:0a:25:b3:1d:19:fa:f6:8a:51:
                    55:54:9f:e0:31:61:ac:6b:aa:b9:74:ec:8b:67:c8:
                    fe:45:b8:a9:29:73:e0:d3:4a:7c:a6:08:12:ae:1d:
                    20:6e:c2:ca:64:68:6d:5d:a9:ef:f2:fa:42:eb:89:
                    9b:55:e2:36:f2:79:7d:c1:fe:5c:bb:f7:25:21:1b:
                    ef:46:b3:be:0a:19:76:dc:65:e5:3c:8e:4f:ac:55:
                    c0:86:05:d6:fc:4e:95:45:1a:25:41:b6:8b:9b:ef:
                    2a:02:d3:4a:e8:a3:25:4b:16:af:67:f3:bf:ff:51:
                    21:8b:4b:2f:bb:0c:f5:58:d2:c6:a5:40:d6:97:bf:
                    4a:c7
                Exponent: 65537 (0x10001)
        X509v3 extensions:
            X509v3 Basic Constraints: 
                CA:FALSE
            X509v3 Subject Key Identifier: 
                B5:BD:D6:BF:96:0E:25:42:D9:D3:80:42:09:8B:6A:90:3D:B8:ED:AE
            X509v3 Authority Key Identifier: 
                keyid:92:DC:1C:EA:C5:82:3A:04:24:27:04:36:AF:A9:9A:6C:04:DB:DC:D3
                DirName:/C=PA/ST=PANAMA/L=PANAMA/O=OneTimeVPN/OU=OneTimeVPN/CN=ChangeMe/emailAddress=ca@onetimevpn.com
                serial:A1:EF:C1:77:C2:DA:58:7B

            X509v3 Extended Key Usage: 
                TLS Web Client Authentication
            X509v3 Key Usage: 
                Digital Signature
    Signature Algorithm: sha256WithRSAEncryption
         5c:b6:34:40:12:d9:2d:25:90:11:2b:2e:78:f1:b4:e5:e2:ed:
         bf:06:56:3f:db:f4:c6:cc:e1:9f:b5:80:70:4e:53:14:6c:64:
         a9:f7:f7:de:44:61:2e:4c:ff:3b:c6:a3:79:0b:8f:0a:9a:47:
         c7:bd:a1:53:09:04:aa:b9:a4:ba:b7:cf:f6:8a:83:fd:0f:b3:
         f4:42:40:cd:cb:ef:9d:18:72:9c:2c:cf:bc:65:70:91:70:b2:
         9a:cf:96:8c:07:64:60:aa:f8:05:04:a3:83:b0:45:ae:4e:e0:
         6e:51:35:cc:e6:ad:55:4e:8e:47:c8:a0:fc:5c:8b:cc:39:3b:
         b9:e0:73:ad:12:34:23:76:6c:ed:16:19:91:f3:9c:83:02:50:
         58:01:d4:6f:dd:3a:10:b3:cc:8b:2a:69:aa:3f:ec:61:88:55:
         f0:47:20:76:d5:16:51:e8:f5:47:ff:ed:6e:94:41:c2:96:07:
         74:02:31:83:0f:f3:a3:d5:d2:78:8a:b1:48:30:e0:2c:c8:a6:
         91:d4:4e:51:56:22:93:e5:6b:22:d3:fc:9b:70:d2:89:51:fb:
         5b:f0:8f:33:ab:c7:b1:47:6c:2b:b1:6b:2b:33:86:1f:1f:c2:
         2d:83:cb:51:bf:2c:c9:eb:88:35:8c:c8:8e:90:ca:55:11:86:
         fb:4b:95:de
-----BEGIN CERTIFICATE-----
MIIEvjCCA6agAwIBAgIQCpBO4uF3pxdy/AKjoWYuaDANBgkqhkiG9w0BAQsFADCB
jjELMAkGA1UEBhMCUEExDzANBgNVBAgMBlBBTkFNQTEPMA0GA1UEBwwGUEFOQU1B
MRMwEQYDVQQKDApPbmVUaW1lVlBOMRMwEQYDVQQLDApPbmVUaW1lVlBOMREwDwYD
VQQDDAhDaGFuZ2VNZTEgMB4GCSqGSIb3DQEJARYRY2FAb25ldGltZXZwbi5jb20w
HhcNMTgxMDA4MjI1NzEzWhcNMjgxMDA1MjI1NzEzWjCBjDELMAkGA1UEBhMCUEEx
DzANBgNVBAgMBlBBTkFNQTEPMA0GA1UEBwwGUEFOQU1BMRMwEQYDVQQKDApPbmVU
aW1lVlBOMRMwEQYDVQQLDApPbmVUaW1lVlBOMQ8wDQYDVQQDDAZjbGllbnQxIDAe
BgkqhkiG9w0BCQEWEWNhQG9uZXRpbWV2cG4uY29tMIIBIjANBgkqhkiG9w0BAQEF
AAOCAQ8AMIIBCgKCAQEAzlf0oAHJ/H/Sz4bmOCMqS3hDLMhWpI8SQuG5ZYenbOmR
WTh8pHGfwBFcOFJx6q8XfDdhuERNQelJ+A4FZU1JfOr3mrWHlq9UbUhH7YOGyY97
hnsxLT0ARnCJuIIJKor9GRKVdd1WjDFLmTHinH99klM6TzeEcXSe39JAnrcKJbMd
Gfr2ilFVVJ/gMWGsa6q5dOyLZ8j+RbipKXPg00p8pggSrh0gbsLKZGhtXanv8vpC
64mbVeI28nl9wf5cu/clIRvvRrO+Chl23GXlPI5PrFXAhgXW/E6VRRolQbaLm+8q
AtNK6KMlSxavZ/O//1Ehi0svuwz1WNLGpUDWl79KxwIDAQABo4IBFjCCARIwCQYD
VR0TBAIwADAdBgNVHQ4EFgQUtb3Wv5YOJULZ04BCCYtqkD247a4wgcMGA1UdIwSB
uzCBuIAUktwc6sWCOgQkJwQ2r6mabATb3NOhgZSkgZEwgY4xCzAJBgNVBAYTAlBB
MQ8wDQYDVQQIDAZQQU5BTUExDzANBgNVBAcMBlBBTkFNQTETMBEGA1UECgwKT25l
VGltZVZQTjETMBEGA1UECwwKT25lVGltZVZQTjERMA8GA1UEAwwIQ2hhbmdlTWUx
IDAeBgkqhkiG9w0BCQEWEWNhQG9uZXRpbWV2cG4uY29tggkAoe/Bd8LaWHswEwYD
VR0lBAwwCgYIKwYBBQUHAwIwCwYDVR0PBAQDAgeAMA0GCSqGSIb3DQEBCwUAA4IB
AQBctjRAEtktJZARKy548bTl4u2/BlY/2/TGzOGftYBwTlMUbGSp9/feRGEuTP87
xqN5C48KmkfHvaFTCQSquaS6t8/2ioP9D7P0QkDNy++dGHKcLM+8ZXCRcLKaz5aM
B2RgqvgFBKODsEWuTuBuUTXM5q1VTo5HyKD8XIvMOTu54HOtEjQjdmztFhmR85yD
AlBYAdRv3ToQs8yLKmmqP+xhiFXwRyB21RZR6PVH/+1ulEHClgd0AjGDD/Oj1dJ4
irFIMOAsyKaR1E5RViKT5Wsi0/ybcNKJUftb8I8zq8exR2wrsWsrM4YfH8Itg8tR
vyzJ64g1jMiOkMpVEYb7S5Xe
-----END CERTIFICATE-----
