Certificate:
    Data:
        Version: 3 (0x2)
        Serial Number:
            f4:11:71:fe:fb:51:c8:1a:d6:4b:ac:26:66:4f:6b:2d
    Signature Algorithm: sha256WithRSAEncryption
        Issuer: C=PA, ST=PANAMA, L=PANAMA, O=OneTimeVPN, OU=OneTimeVPN, CN=ChangeMe/emailAddress=ca@onetimevpn.com
        Validity
            Not Before: Sep 30 23:49:22 2018 GMT
            Not After : Sep 27 23:49:22 2028 GMT
        Subject: C=PA, ST=PANAMA, L=PANAMA, O=OneTimeVPN, OU=OneTimeVPN, CN=client/emailAddress=ca@onetimevpn.com
        Subject Public Key Info:
            Public Key Algorithm: rsaEncryption
                Public-Key: (2048 bit)
                Modulus:
                    00:ce:fd:89:ba:22:dd:77:ca:f2:4d:57:65:48:1f:
                    01:81:51:c1:9c:12:f7:fd:4f:94:74:20:4d:06:4b:
                    95:9b:c5:98:31:b2:c8:d5:ed:a6:c2:cb:7f:53:2d:
                    83:d5:c9:22:2b:c4:1e:ca:92:c7:69:90:06:69:da:
                    b0:8a:fa:f1:17:f0:0c:47:ef:59:aa:70:84:48:b2:
                    d6:01:5c:f9:6b:30:bc:e9:9d:8e:9f:c2:0d:46:8e:
                    4f:5d:c7:b6:96:50:d1:43:51:7d:29:5a:b1:d9:a2:
                    b8:d9:a9:71:c0:a3:c1:38:40:e5:09:0a:75:04:a5:
                    1b:5c:b1:28:88:05:0a:ea:61:8a:46:a5:72:cd:e1:
                    b3:2e:58:4c:08:e6:5d:ac:d4:1c:f0:75:65:36:ed:
                    4d:60:17:d1:3c:86:ee:1e:e3:56:ab:be:2d:30:87:
                    21:ae:37:a3:42:2d:b1:7e:61:0e:37:a0:0a:63:32:
                    b4:f6:ff:1c:30:df:15:89:f0:13:6e:2b:81:b2:be:
                    99:ec:d5:dd:7a:47:39:1e:ef:75:2c:c2:c1:fe:64:
                    ad:12:70:04:00:14:0a:31:a0:7d:f0:3b:36:20:33:
                    cc:e2:dc:1f:08:16:9d:e3:88:67:11:9a:33:69:db:
                    0b:4f:d1:dc:19:06:45:32:d9:6d:fb:68:d2:3a:1e:
                    29:65
                Exponent: 65537 (0x10001)
        X509v3 extensions:
            X509v3 Basic Constraints: 
                CA:FALSE
            X509v3 Subject Key Identifier: 
                72:02:A2:71:8D:DD:32:AE:67:C6:38:44:10:3E:36:8E:9E:06:DA:72
            X509v3 Authority Key Identifier: 
                keyid:87:C2:18:0B:6A:64:FF:81:A2:C9:11:52:5D:85:19:81:C3:3C:8B:E5
                DirName:/C=PA/ST=PANAMA/L=PANAMA/O=OneTimeVPN/OU=OneTimeVPN/CN=ChangeMe/emailAddress=ca@onetimevpn.com
                serial:8E:1D:FB:00:7D:FF:FD:98

            X509v3 Extended Key Usage: 
                TLS Web Client Authentication
            X509v3 Key Usage: 
                Digital Signature
    Signature Algorithm: sha256WithRSAEncryption
         e0:81:46:aa:f7:7f:8b:35:be:b4:bb:e3:ad:35:d0:da:aa:89:
         39:53:d6:aa:ce:ca:c3:54:fd:ba:c7:30:fd:85:ff:54:00:4e:
         e9:12:a9:27:af:2d:9b:d3:85:04:de:ba:68:9c:7f:f7:1b:d0:
         04:19:3e:29:0c:73:3f:dc:dc:9b:e6:3e:60:f9:99:ae:ca:77:
         dc:6d:88:94:72:16:15:a2:f7:ac:e3:db:f7:14:1b:1c:b5:96:
         7d:e7:0c:64:a3:a3:8b:11:32:2f:bf:36:63:bc:bb:f3:1b:64:
         cb:54:bc:59:98:2c:5f:e3:ff:77:17:02:ee:d2:d5:66:43:88:
         b9:bb:5b:18:d2:b6:1c:83:2f:9e:fb:44:99:69:41:54:52:2d:
         47:14:75:de:ac:6b:49:ef:e2:33:8e:70:a1:58:f8:e7:73:01:
         a3:6a:ef:15:4b:65:eb:5b:df:64:4f:4c:2c:be:45:38:85:1f:
         e5:bc:54:3a:a1:21:8a:65:89:9c:4f:b0:c9:6e:31:9b:1f:c0:
         82:bd:2d:30:8e:3b:6b:c7:4c:5f:2c:c0:d3:cc:fe:af:34:68:
         5b:08:cd:4d:ec:86:cf:aa:dd:d3:33:df:04:5a:cc:ad:f2:5f:
         3f:1f:0f:eb:b2:a0:2f:cf:3e:cf:31:1e:5a:e1:c4:c2:98:cc:
         34:19:ad:fc
-----BEGIN CERTIFICATE-----
MIIEvzCCA6egAwIBAgIRAPQRcf77Ucga1kusJmZPay0wDQYJKoZIhvcNAQELBQAw
gY4xCzAJBgNVBAYTAlBBMQ8wDQYDVQQIDAZQQU5BTUExDzANBgNVBAcMBlBBTkFN
QTETMBEGA1UECgwKT25lVGltZVZQTjETMBEGA1UECwwKT25lVGltZVZQTjERMA8G
A1UEAwwIQ2hhbmdlTWUxIDAeBgkqhkiG9w0BCQEWEWNhQG9uZXRpbWV2cG4uY29t
MB4XDTE4MDkzMDIzNDkyMloXDTI4MDkyNzIzNDkyMlowgYwxCzAJBgNVBAYTAlBB
MQ8wDQYDVQQIDAZQQU5BTUExDzANBgNVBAcMBlBBTkFNQTETMBEGA1UECgwKT25l
VGltZVZQTjETMBEGA1UECwwKT25lVGltZVZQTjEPMA0GA1UEAwwGY2xpZW50MSAw
HgYJKoZIhvcNAQkBFhFjYUBvbmV0aW1ldnBuLmNvbTCCASIwDQYJKoZIhvcNAQEB
BQADggEPADCCAQoCggEBAM79iboi3XfK8k1XZUgfAYFRwZwS9/1PlHQgTQZLlZvF
mDGyyNXtpsLLf1Mtg9XJIivEHsqSx2mQBmnasIr68RfwDEfvWapwhEiy1gFc+Wsw
vOmdjp/CDUaOT13HtpZQ0UNRfSlasdmiuNmpccCjwThA5QkKdQSlG1yxKIgFCuph
ikalcs3hsy5YTAjmXazUHPB1ZTbtTWAX0TyG7h7jVqu+LTCHIa43o0ItsX5hDjeg
CmMytPb/HDDfFYnwE24rgbK+mezV3XpHOR7vdSzCwf5krRJwBAAUCjGgffA7NiAz
zOLcHwgWneOIZxGaM2nbC0/R3BkGRTLZbfto0joeKWUCAwEAAaOCARYwggESMAkG
A1UdEwQCMAAwHQYDVR0OBBYEFHIConGN3TKuZ8Y4RBA+No6eBtpyMIHDBgNVHSME
gbswgbiAFIfCGAtqZP+BoskRUl2FGYHDPIvloYGUpIGRMIGOMQswCQYDVQQGEwJQ
QTEPMA0GA1UECAwGUEFOQU1BMQ8wDQYDVQQHDAZQQU5BTUExEzARBgNVBAoMCk9u
ZVRpbWVWUE4xEzARBgNVBAsMCk9uZVRpbWVWUE4xETAPBgNVBAMMCENoYW5nZU1l
MSAwHgYJKoZIhvcNAQkBFhFjYUBvbmV0aW1ldnBuLmNvbYIJAI4d+wB9//2YMBMG
A1UdJQQMMAoGCCsGAQUFBwMCMAsGA1UdDwQEAwIHgDANBgkqhkiG9w0BAQsFAAOC
AQEA4IFGqvd/izW+tLvjrTXQ2qqJOVPWqs7Kw1T9uscw/YX/VABO6RKpJ68tm9OF
BN66aJx/9xvQBBk+KQxzP9zcm+Y+YPmZrsp33G2IlHIWFaL3rOPb9xQbHLWWfecM
ZKOjixEyL782Y7y78xtky1S8WZgsX+P/dxcC7tLVZkOIubtbGNK2HIMvnvtEmWlB
VFItRxR13qxrSe/iM45woVj453MBo2rvFUtl61vfZE9MLL5FOIUf5bxUOqEhimWJ
nE+wyW4xmx/Agr0tMI47a8dMXyzA08z+rzRoWwjNTeyGz6rd0zPfBFrMrfJfPx8P
67KgL88+zzEeWuHEwpjMNBmt/A==
-----END CERTIFICATE-----
